; Function Attrs: mustprogress nounwind uwtable
define hidden void @_ZN5Klass29check_valid_for_instantiationEbP10JavaThread(ptr nocapture noundef nonnull readonly align 8 dereferenceable(196) %0, i1 noundef zeroext %1, ptr noundef %2) unnamed_addr #0 align 2 {
  %4 = getelementptr inbounds i8, ptr %2, i64 800
  %5 = load ptr, ptr %4, align 8
  %6 = getelementptr inbounds i8, ptr %5, i64 24
  %7 = load ptr, ptr %6, align 8
  %8 = getelementptr inbounds i8, ptr %5, i64 32
  %9 = load ptr, ptr %8, align 8
  %10 = getelementptr inbounds i8, ptr %5, i64 40
  %11 = load ptr, ptr %10, align 8
  %12 = getelementptr inbounds i8, ptr %5, i64 8
  %13 = load i64, ptr %12, align 8
  %. = select i1 %1, ptr getelementptr inbounds (i8, ptr @_ZN6Symbol11_vm_symbolsE, i64 1152), ptr getelementptr inbounds (i8, ptr @_ZN6Symbol11_vm_symbolsE, i64 1144)
  %14 = load ptr, ptr %., align 8
  %15 = tail call noundef ptr @_ZNK5Klass13external_nameEv(ptr noundef nonnull align 8 dereferenceable(196) %0)
  tail call void @_ZN10Exceptions10_throw_msgEP10JavaThreadPKciP6SymbolS3_(ptr noundef nonnull %2, ptr noundef nonnull @.str, i32 noundef 212, ptr noundef %14, ptr noundef %15) #21
  %16 = load ptr, ptr %7, align 8
  %.not.i.i.i.i = icmp eq ptr %16, null
  br i1 %.not.i.i.i.i, label %18, label %17

17:                                               ; preds = %3
  tail call void @_ZN5Arena17set_size_in_bytesEm(ptr noundef nonnull align 8 dereferenceable(48) %5, i64 noundef %13) #21
  tail call void @_ZN5Chunk9next_chopEPS_(ptr noundef nonnull %7) #21
  br label %18

18:                                               ; preds = %17, %3
  %19 = load ptr, ptr %8, align 8
  %.not8.i.i.i.i = icmp eq ptr %19, %9
  br i1 %.not8.i.i.i.i, label %_ZN12ResourceMarkD2Ev.exit, label %20

20:                                               ; preds = %18
  store ptr %7, ptr %6, align 8
  store ptr %9, ptr %8, align 8
  store ptr %11, ptr %10, align 8
  br label %_ZN12ResourceMarkD2Ev.exit

_ZN12ResourceMarkD2Ev.exit:                       ; preds = %18, %20
  ret void
}